; Function Attrs: mustprogress uwtable
define dso_local void @_ZN25SimpleRuleBasedPathFilter7addRuleERKNSt7__cxx1112basic_stringIcSt11char_traitsIcESaIcEEER10UErrorCode(ptr noundef nonnull align 8 dereferenceable(72) %this, ptr noundef nonnull align 8 dereferenceable(32) %ruleLine, ptr noundef nonnull align 4 dereferenceable(4) %status) local_unnamed_addr #4 align 2 personality ptr @__gxx_personality_v0 {
entry:
  %path = alloca %class.ResKeyPath, align 8
  %ref.tmp = alloca %"class.std::__cxx11::basic_string", align 8
  %call = tail call noundef zeroext i1 @_ZNKSt7__cxx1112basic_stringIcSt11char_traitsIcESaIcEE5emptyEv(ptr noundef nonnull align 8 dereferenceable(32) %ruleLine) #17
  br i1 %call, label %if.then, label %if.end

if.then:                                          ; preds = %entry
  %call2 = tail call noundef nonnull align 8 dereferenceable(8) ptr @_ZStlsISt11char_traitsIcEERSt13basic_ostreamIcT_ES5_PKc(ptr noundef nonnull align 8 dereferenceable(8) @_ZSt4cerr, ptr noundef nonnull @.str.6)
  br label %return.sink.split

if.end:                                           ; preds = %entry
  %call4 = tail call noundef nonnull align 1 dereferenceable(1) ptr @_ZNKSt7__cxx1112basic_stringIcSt11char_traitsIcESaIcEEixEm(ptr noundef nonnull align 8 dereferenceable(32) %ruleLine, i64 noundef 0) #17
  %0 = load i8, ptr %call4, align 1
  %cmp = icmp eq i8 %0, 43
  br i1 %cmp, label %if.end14, label %if.else

if.else:                                          ; preds = %if.end
  %call6 = tail call noundef nonnull align 1 dereferenceable(1) ptr @_ZNKSt7__cxx1112basic_stringIcSt11char_traitsIcESaIcEEixEm(ptr noundef nonnull align 8 dereferenceable(32) %ruleLine, i64 noundef 0) #17
  %1 = load i8, ptr %call6, align 1
  %cmp8.not = icmp eq i8 %1, 45
  br i1 %cmp8.not, label %if.end14, label %if.then9

if.then9:                                         ; preds = %if.else
  %call10 = tail call noundef nonnull align 8 dereferenceable(8) ptr @_ZStlsISt11char_traitsIcEERSt13basic_ostreamIcT_ES5_PKc(ptr noundef nonnull align 8 dereferenceable(8) @_ZSt4cerr, ptr noundef nonnull @.str.7)
  %call11 = tail call noundef nonnull align 8 dereferenceable(8) ptr @_ZStlsIcSt11char_traitsIcESaIcEERSt13basic_ostreamIT_T0_ES7_RKNSt7__cxx1112basic_stringIS4_S5_T1_EE(ptr noundef nonnull align 8 dereferenceable(8) %call10, ptr noundef nonnull align 8 dereferenceable(32) %ruleLine)
  br label %return.sink.split

if.end14:                                         ; preds = %if.end, %if.else
  call void @_ZNKSt7__cxx1112basic_stringIcSt11char_traitsIcESaIcEE6substrEmm(ptr nonnull sret(%"class.std::__cxx11::basic_string") align 8 %ref.tmp, ptr noundef nonnull align 8 dereferenceable(32) %ruleLine, i64 noundef 1, i64 noundef -1)
  invoke void @_ZN10ResKeyPathC2ERKNSt7__cxx1112basic_stringIcSt11char_traitsIcESaIcEEER10UErrorCode(ptr noundef nonnull align 8 dereferenceable(24) %path, ptr noundef nonnull align 8 dereferenceable(32) %ref.tmp, ptr noundef nonnull align 4 dereferenceable(4) %status)
          to label %invoke.cont unwind label %lpad

invoke.cont:                                      ; preds = %if.end14
  call void @_ZNSt7__cxx1112basic_stringIcSt11char_traitsIcESaIcEED1Ev(ptr noundef nonnull align 8 dereferenceable(32) %ref.tmp) #17
  %2 = load i32, ptr %status, align 4
  %cmp.i.i = icmp slt i32 %2, 1
  br i1 %cmp.i.i, label %if.end.i, label %invoke.cont16

if.end.i:                                         ; preds = %invoke.cont
  %fRoot.i = getelementptr inbounds i8, ptr %this, i64 8
  %3 = load ptr, ptr %path, align 8
  invoke void @_ZN25SimpleRuleBasedPathFilter4Tree9applyRuleERK10ResKeyPathSt20_List_const_iteratorINSt7__cxx1112basic_stringIcSt11char_traitsIcESaIcEEEEbR10UErrorCode(ptr noundef nonnull align 8 dereferenceable(64) %fRoot.i, ptr noundef nonnull align 8 dereferenceable(24) %path, ptr %3, i1 noundef zeroext %cmp, ptr noundef nonnull align 4 dereferenceable(4) %status)
          to label %invoke.cont16 unwind label %lpad15

invoke.cont16:                                    ; preds = %invoke.cont, %if.end.i
  %4 = load ptr, ptr %path, align 8
  %cmp.not4.i.i.i.i = icmp eq ptr %4, %path
  br i1 %cmp.not4.i.i.i.i, label %return, label %while.body.i.i.i.i

while.body.i.i.i.i:                               ; preds = %invoke.cont16, %while.body.i.i.i.i
  %__cur.05.i.i.i.i = phi ptr [ %5, %while.body.i.i.i.i ], [ %4, %invoke.cont16 ]
  %5 = load ptr, ptr %__cur.05.i.i.i.i, align 8
  %_M_storage.i.i.i.i.i = getelementptr inbounds i8, ptr %__cur.05.i.i.i.i, i64 16
  call void @_ZNSt7__cxx1112basic_stringIcSt11char_traitsIcESaIcEED1Ev(ptr noundef nonnull align 8 dereferenceable(32) %_M_storage.i.i.i.i.i) #17
  call void @_ZdlPv(ptr noundef %__cur.05.i.i.i.i) #19
  %cmp.not.i.i.i.i = icmp eq ptr %5, %path
  br i1 %cmp.not.i.i.i.i, label %return, label %while.body.i.i.i.i, !llvm.loop !5

return.sink.split:                                ; preds = %if.then, %if.then9
  %call11.sink = phi ptr [ %call11, %if.then9 ], [ %call2, %if.then ]
  %call12 = tail call noundef nonnull align 8 dereferenceable(8) ptr @_ZNSolsEPFRSoS_E(ptr noundef nonnull align 8 dereferenceable(8) %call11.sink, ptr noundef nonnull @_ZSt4endlIcSt11char_traitsIcEERSt13basic_ostreamIT_T0_ES6_)
  store i32 9, ptr %status, align 4
  br label %return

return:                                           ; preds = %while.body.i.i.i.i, %return.sink.split, %invoke.cont16
  ret void

lpad:                                             ; preds = %if.end14
  %6 = landingpad { ptr, i32 }
          cleanup
  call void @_ZNSt7__cxx1112basic_stringIcSt11char_traitsIcESaIcEED1Ev(ptr noundef nonnull align 8 dereferenceable(32) %ref.tmp) #17
  br label %eh.resume

lpad15:                                           ; preds = %if.end.i
  %7 = landingpad { ptr, i32 }
          cleanup
  call void @_ZN10ResKeyPathD2Ev(ptr noundef nonnull align 8 dereferenceable(24) %path) #17
  br label %eh.resume

eh.resume:                                        ; preds = %lpad15, %lpad
  %.pn = phi { ptr, i32 } [ %7, %lpad15 ], [ %6, %lpad ]
  resume { ptr, i32 } %.pn
}